target datalayout = "e-m:e-p270:32:32-p271:32:32-p272:64:64-i64:64-i128:128-f80:128-n8:16:32:64-S128"
target triple = "x86_64-pc-linux-gnu"

%struct._zval_struct = type { %union._zend_value, %union.anon, %union.anon.2 }
%union._zend_value = type { i64 }
%union.anon = type { i32 }
%union.anon.2 = type { i32 }
%struct._zend_refcounted_h = type { i32, %union.anon.3 }
%union.anon.3 = type { i32 }
%struct._zend_refcounted = type { %struct._zend_refcounted_h }
%struct.zend_type = type { ptr, i32 }
%struct._zend_property_info = type { i32, i32, ptr, ptr, ptr, ptr, %struct.zend_type, ptr, ptr }

; Function Attrs: alwaysinline nounwind uwtable
define internal i32 @zend_gc_addref(ptr noundef %0) #2 {
  %2 = alloca ptr, align 8
  store ptr %0, ptr %2, align 8, !tbaa !143
  br label %3

3:                                                ; preds = %1
  br label %4

4:                                                ; preds = %3
  %5 = load ptr, ptr %2, align 8, !tbaa !143
  %6 = getelementptr inbounds nuw %struct._zend_refcounted_h, ptr %5, i32 0, i32 0
  %7 = load i32, ptr %6, align 4, !tbaa !145
  %8 = add i32 %7, 1
  store i32 %8, ptr %6, align 4, !tbaa !145
  ret i32 %8
}

; Function Attrs: nounwind uwtable
define internal i32 @update_property(ptr noundef %0, ptr noundef %1) #0 {
  %3 = alloca i32, align 4
  %4 = alloca ptr, align 8
  %5 = alloca ptr, align 8
  %6 = alloca %struct._zval_struct, align 8
  %7 = alloca ptr, align 8
  %8 = alloca ptr, align 8
  %9 = alloca ptr, align 8
  %10 = alloca i32, align 4
  %11 = alloca i32, align 4
  %12 = alloca ptr, align 8
  %13 = alloca ptr, align 8
  %14 = alloca ptr, align 8
  %15 = alloca i32, align 4
  store ptr %0, ptr %4, align 8, !tbaa !8
  store ptr %1, ptr %5, align 8, !tbaa !152
  %16 = load ptr, ptr %5, align 8, !tbaa !152
  %17 = getelementptr inbounds nuw %struct._zend_property_info, ptr %16, i32 0, i32 6
  %18 = getelementptr inbounds nuw %struct.zend_type, ptr %17, i32 0, i32 1
  %19 = load i32, ptr %18, align 8, !tbaa !159
  %20 = and i32 %19, 33554431
  %21 = icmp ne i32 %20, 0
  br i1 %21, label %22, label %95

22:                                               ; preds = %2
  call void @llvm.lifetime.start.p0(i64 16, ptr %6) #21
  br label %23

23:                                               ; preds = %22
  call void @llvm.lifetime.start.p0(i64 8, ptr %7) #21
  store ptr %6, ptr %7, align 8, !tbaa !8
  call void @llvm.lifetime.start.p0(i64 8, ptr %8) #21
  %24 = load ptr, ptr %4, align 8, !tbaa !8
  store ptr %24, ptr %8, align 8, !tbaa !8
  call void @llvm.lifetime.start.p0(i64 8, ptr %9) #21
  %25 = load ptr, ptr %8, align 8, !tbaa !8
  %26 = getelementptr inbounds nuw %struct._zval_struct, ptr %25, i32 0, i32 0
  %27 = load ptr, ptr %26, align 8, !tbaa !44
  store ptr %27, ptr %9, align 8, !tbaa !45
  call void @llvm.lifetime.start.p0(i64 4, ptr %10) #21
  %28 = load ptr, ptr %8, align 8, !tbaa !8
  %29 = getelementptr inbounds nuw %struct._zval_struct, ptr %28, i32 0, i32 1
  %30 = load i32, ptr %29, align 8, !tbaa !44
  store i32 %30, ptr %10, align 4, !tbaa !4
  br label %31

31:                                               ; preds = %23
  %32 = load ptr, ptr %9, align 8, !tbaa !45
  %33 = load ptr, ptr %7, align 8, !tbaa !8
  %34 = getelementptr inbounds nuw %struct._zval_struct, ptr %33, i32 0, i32 0
  store ptr %32, ptr %34, align 8, !tbaa !44
  %35 = load i32, ptr %10, align 4, !tbaa !4
  %36 = load ptr, ptr %7, align 8, !tbaa !8
  %37 = getelementptr inbounds nuw %struct._zval_struct, ptr %36, i32 0, i32 1
  store i32 %35, ptr %37, align 8, !tbaa !44
  br label %38

38:                                               ; preds = %31
  br label %39

39:                                               ; preds = %38
  %40 = load i32, ptr %10, align 4, !tbaa !4
  %41 = and i32 %40, 65280
  %42 = icmp ne i32 %41, 0
  br i1 %42, label %43, label %47

43:                                               ; preds = %39
  %44 = load ptr, ptr %9, align 8, !tbaa !45
  %45 = getelementptr inbounds nuw %struct._zend_refcounted, ptr %44, i32 0, i32 0
  %46 = call i32 @zend_gc_addref(ptr noundef %45)
  br label %47

47:                                               ; preds = %43, %39
  call void @llvm.lifetime.end.p0(i64 4, ptr %10) #21
  call void @llvm.lifetime.end.p0(i64 8, ptr %9) #21
  call void @llvm.lifetime.end.p0(i64 8, ptr %8) #21
  call void @llvm.lifetime.end.p0(i64 8, ptr %7) #21
  br label %48

48:                                               ; preds = %47
  br label %49

49:                                               ; preds = %48
  %50 = load ptr, ptr %5, align 8, !tbaa !152
  %51 = getelementptr inbounds nuw %struct._zend_property_info, ptr %50, i32 0, i32 5
  %52 = load ptr, ptr %51, align 8, !tbaa !160
  %53 = call i32 @zval_update_constant_ex(ptr noundef %6, ptr noundef %52)
  %54 = icmp ne i32 %53, 0
  %55 = xor i1 %54, true
  %56 = xor i1 %55, true
  %57 = zext i1 %56 to i32
  %58 = sext i32 %57 to i64
  %59 = call i64 @llvm.expect.i64(i64 %58, i64 0)
  %60 = icmp ne i64 %59, 0
  br i1 %60, label %61, label %62

61:                                               ; preds = %49
  call void @zval_ptr_dtor(ptr noundef %6)
  store i32 -1, ptr %3, align 4
  store i32 1, ptr %11, align 4
  br label %94

62:                                               ; preds = %49
  %63 = load ptr, ptr %5, align 8, !tbaa !152
  %64 = call zeroext i1 @zend_verify_property_type(ptr noundef %63, ptr noundef %6, i1 noundef zeroext true)
  %65 = xor i1 %64, true
  %66 = xor i1 %65, true
  %67 = xor i1 %66, true
  %68 = zext i1 %67 to i32
  %69 = sext i32 %68 to i64
  %70 = call i64 @llvm.expect.i64(i64 %69, i64 0)
  %71 = icmp ne i64 %70, 0
  br i1 %71, label %72, label %73

72:                                               ; preds = %62
  call void @zval_ptr_dtor(ptr noundef %6)
  store i32 -1, ptr %3, align 4
  store i32 1, ptr %11, align 4
  br label %94

73:                                               ; preds = %62
  %74 = load ptr, ptr %4, align 8, !tbaa !8
  call void @zval_ptr_dtor(ptr noundef %74)
  br label %75

75:                                               ; preds = %73
  call void @llvm.lifetime.start.p0(i64 8, ptr %12) #21
  %76 = load ptr, ptr %4, align 8, !tbaa !8
  store ptr %76, ptr %12, align 8, !tbaa !8
  call void @llvm.lifetime.start.p0(i64 8, ptr %13) #21
  store ptr %6, ptr %13, align 8, !tbaa !8
  call void @llvm.lifetime.start.p0(i64 8, ptr %14) #21
  %77 = load ptr, ptr %13, align 8, !tbaa !8
  %78 = getelementptr inbounds nuw %struct._zval_struct, ptr %77, i32 0, i32 0
  %79 = load ptr, ptr %78, align 8, !tbaa !44
  store ptr %79, ptr %14, align 8, !tbaa !45
  call void @llvm.lifetime.start.p0(i64 4, ptr %15) #21
  %80 = load ptr, ptr %13, align 8, !tbaa !8
  %81 = getelementptr inbounds nuw %struct._zval_struct, ptr %80, i32 0, i32 1
  %82 = load i32, ptr %81, align 8, !tbaa !44
  store i32 %82, ptr %15, align 4, !tbaa !4
  br label %83

83:                                               ; preds = %75
  %84 = load ptr, ptr %14, align 8, !tbaa !45
  %85 = load ptr, ptr %12, align 8, !tbaa !8
  %86 = getelementptr inbounds nuw %struct._zval_struct, ptr %85, i32 0, i32 0
  store ptr %84, ptr %86, align 8, !tbaa !44
  %87 = load i32, ptr %15, align 4, !tbaa !4
  %88 = load ptr, ptr %12, align 8, !tbaa !8
  %89 = getelementptr inbounds nuw %struct._zval_struct, ptr %88, i32 0, i32 1
  store i32 %87, ptr %89, align 8, !tbaa !44
  br label %90

90:                                               ; preds = %83
  br label %91

91:                                               ; preds = %90
  call void @llvm.lifetime.end.p0(i64 4, ptr %15) #21
  call void @llvm.lifetime.end.p0(i64 8, ptr %14) #21
  call void @llvm.lifetime.end.p0(i64 8, ptr %13) #21
  call void @llvm.lifetime.end.p0(i64 8, ptr %12) #21
  br label %92

92:                                               ; preds = %91
  br label %93

93:                                               ; preds = %92
  store i32 0, ptr %3, align 4
  store i32 1, ptr %11, align 4
  br label %94

94:                                               ; preds = %93, %72, %61
  call void @llvm.lifetime.end.p0(i64 16, ptr %6) #21
  br label %101

95:                                               ; preds = %2
  %96 = load ptr, ptr %4, align 8, !tbaa !8
  %97 = load ptr, ptr %5, align 8, !tbaa !152
  %98 = getelementptr inbounds nuw %struct._zend_property_info, ptr %97, i32 0, i32 5
  %99 = load ptr, ptr %98, align 8, !tbaa !160
  %100 = call i32 @zval_update_constant_ex(ptr noundef %96, ptr noundef %99)
  store i32 %100, ptr %3, align 4
  br label %101

101:                                              ; preds = %95, %94
  %102 = load i32, ptr %3, align 4
  ret i32 %102
}