; Function Attrs: nounwind uwtable
define internal fastcc i32 @update_property(ptr noundef %0, ptr noundef %1) unnamed_addr #2 {
  %3 = alloca %struct._zval_struct, align 8
  %4 = getelementptr inbounds nuw i8, ptr %1, i64 48
  %5 = load i32, ptr %4, align 8, !tbaa !173
  %6 = and i32 %5, 33554431
  %.not = icmp eq i32 %6, 0
  br i1 %.not, label %28, label %7

7:                                                ; preds = %2
  call void @llvm.lifetime.start.p0(i64 16, ptr nonnull %3) #34
  %8 = load ptr, ptr %0, align 8, !tbaa !42
  %9 = getelementptr inbounds nuw i8, ptr %0, i64 8
  %10 = load i32, ptr %9, align 8, !tbaa !42
  store ptr %8, ptr %3, align 8, !tbaa !42
  %11 = getelementptr inbounds nuw i8, ptr %3, i64 8
  store i32 %10, ptr %11, align 8, !tbaa !42
  %12 = and i32 %10, 65280
  %.not22 = icmp eq i32 %12, 0
  br i1 %.not22, label %16, label %13

13:                                               ; preds = %7
  %14 = load i32, ptr %8, align 4, !tbaa !43
  %15 = add i32 %14, 1
  store i32 %15, ptr %8, align 4, !tbaa !43
  br label %16

16:                                               ; preds = %13, %7
  %17 = getelementptr inbounds nuw i8, ptr %1, i64 32
  %18 = load ptr, ptr %17, align 8, !tbaa !174
  %19 = call i32 @zval_update_constant_ex(ptr noundef nonnull %3, ptr noundef %18) #34
  %.not23 = icmp eq i32 %19, 0
  br i1 %.not23, label %21, label %20, !prof !45

20:                                               ; preds = %16
  call void @zval_ptr_dtor(ptr noundef nonnull %3) #34
  br label %27

21:                                               ; preds = %16
  %22 = call zeroext i1 @zend_verify_property_type(ptr noundef nonnull %1, ptr noundef nonnull %3, i1 noundef zeroext true) #34
  br i1 %22, label %24, label %23, !prof !45

23:                                               ; preds = %21
  call void @zval_ptr_dtor(ptr noundef nonnull %3) #34
  br label %27

24:                                               ; preds = %21
  call void @zval_ptr_dtor(ptr noundef nonnull %0) #34
  %25 = load ptr, ptr %3, align 8, !tbaa !42
  %26 = load i32, ptr %11, align 8, !tbaa !42
  store ptr %25, ptr %0, align 8, !tbaa !42
  store i32 %26, ptr %9, align 8, !tbaa !42
  br label %27

27:                                               ; preds = %24, %23, %20
  %.0 = phi i32 [ -1, %20 ], [ -1, %23 ], [ 0, %24 ]
  call void @llvm.lifetime.end.p0(i64 16, ptr nonnull %3) #34
  br label %32

28:                                               ; preds = %2
  %29 = getelementptr inbounds nuw i8, ptr %1, i64 32
  %30 = load ptr, ptr %29, align 8, !tbaa !174
  %31 = tail call i32 @zval_update_constant_ex(ptr noundef %0, ptr noundef %30) #34
  br label %32

32:                                               ; preds = %28, %27
  %.1 = phi i32 [ %.0, %27 ], [ %31, %28 ]
  ret i32 %.1
}